; ModuleID = '49/1017.c'
source_filename = "49/1017.c"
target datalayout = "e-m:e-p270:32:32-p271:32:32-p272:64:64-i64:64-f80:128-n8:16:32:64-S128"
target triple = "x86_64-pc-linux-gnu"

@.str = private unnamed_addr constant [3 x i8] c"%c\00", align 1
@.str.1 = private unnamed_addr constant [2 x i8] c"\0A\00", align 1

; Function Attrs: noinline nounwind uwtable
define dso_local void @main() #0 {
  %1 = alloca [1000 x i8], align 16
  %2 = alloca i32, align 4
  %3 = alloca i32, align 4
  %4 = alloca i32, align 4
  %5 = alloca i32, align 4
  %6 = alloca i32, align 4
  %7 = alloca i32, align 4
  %8 = alloca i32, align 4
  %9 = alloca i32, align 4
  %10 = alloca i32, align 4
  %11 = alloca i32, align 4
  %12 = alloca i32, align 4
  %13 = getelementptr inbounds [1000 x i8], [1000 x i8]* %1, i64 0, i64 0
  %14 = call i32 (i8*, ...) bitcast (i32 (...)* @gets to i32 (i8*, ...)*)(i8* %13)
  %15 = getelementptr inbounds [1000 x i8], [1000 x i8]* %1, i64 0, i64 0
  %16 = call i64 @strlen(i8* %15) #3
  %17 = trunc i64 %16 to i32
  store i32 %17, i32* %11, align 4
  store i32 2, i32* %12, align 4
  br label %18

18:                                               ; preds = %87, %0
  %19 = load i32, i32* %12, align 4
  %20 = load i32, i32* %11, align 4
  %21 = icmp sle i32 %19, %20
  br i1 %21, label %22, label %90

22:                                               ; preds = %18
  store i32 0, i32* %8, align 4
  br label %23

23:                                               ; preds = %83, %22
  %24 = load i32, i32* %8, align 4
  %25 = load i32, i32* %11, align 4
  %26 = load i32, i32* %12, align 4
  %27 = sub nsw i32 %25, %26
  %28 = icmp sle i32 %24, %27
  br i1 %28, label %29, label %86

29:                                               ; preds = %23
  store i32 0, i32* %2, align 4
  store i32 0, i32* %9, align 4
  br label %30

30:                                               ; preds = %56, %29
  %31 = load i32, i32* %9, align 4
  %32 = load i32, i32* %12, align 4
  %33 = sdiv i32 %32, 2
  %34 = icmp slt i32 %31, %33
  br i1 %34, label %35, label %59

35:                                               ; preds = %30
  %36 = load i32, i32* %8, align 4
  %37 = load i32, i32* %9, align 4
  %38 = add nsw i32 %36, %37
  %39 = sext i32 %38 to i64
  %40 = getelementptr inbounds [1000 x i8], [1000 x i8]* %1, i64 0, i64 %39
  %41 = load i8, i8* %40, align 1
  %42 = sext i8 %41 to i32
  %43 = load i32, i32* %12, align 4
  %44 = load i32, i32* %9, align 4
  %45 = sub nsw i32 %43, %44
  %46 = load i32, i32* %8, align 4
  %47 = add nsw i32 %45, %46
  %48 = sub nsw i32 %47, 1
  %49 = sext i32 %48 to i64
  %50 = getelementptr inbounds [1000 x i8], [1000 x i8]* %1, i64 0, i64 %49
  %51 = load i8, i8* %50, align 1
  %52 = sext i8 %51 to i32
  %53 = icmp ne i32 %42, %52
  br i1 %53, label %54, label %55

54:                                               ; preds = %35
  store i32 1, i32* %2, align 4
  br label %59

55:                                               ; preds = %35
  br label %56

56:                                               ; preds = %55
  %57 = load i32, i32* %9, align 4
  %58 = add nsw i32 %57, 1
  store i32 %58, i32* %9, align 4
  br label %30

59:                                               ; preds = %54, %30
  %60 = load i32, i32* %2, align 4
  %61 = icmp eq i32 %60, 0
  br i1 %61, label %62, label %82

62:                                               ; preds = %59
  %63 = load i32, i32* %8, align 4
  store i32 %63, i32* %9, align 4
  br label %64

64:                                               ; preds = %77, %62
  %65 = load i32, i32* %9, align 4
  %66 = load i32, i32* %8, align 4
  %67 = load i32, i32* %12, align 4
  %68 = add nsw i32 %66, %67
  %69 = icmp slt i32 %65, %68
  br i1 %69, label %70, label %80

70:                                               ; preds = %64
  %71 = load i32, i32* %9, align 4
  %72 = sext i32 %71 to i64
  %73 = getelementptr inbounds [1000 x i8], [1000 x i8]* %1, i64 0, i64 %72
  %74 = load i8, i8* %73, align 1
  %75 = sext i8 %74 to i32
  %76 = call i32 (i8*, ...) @printf(i8* getelementptr inbounds ([3 x i8], [3 x i8]* @.str, i64 0, i64 0), i32 %75)
  br label %77

77:                                               ; preds = %70
  %78 = load i32, i32* %9, align 4
  %79 = add nsw i32 %78, 1
  store i32 %79, i32* %9, align 4
  br label %64

80:                                               ; preds = %64
  %81 = call i32 (i8*, ...) @printf(i8* getelementptr inbounds ([2 x i8], [2 x i8]* @.str.1, i64 0, i64 0))
  br label %82

82:                                               ; preds = %80, %59
  br label %83

83:                                               ; preds = %82
  %84 = load i32, i32* %8, align 4
  %85 = add nsw i32 %84, 1
  store i32 %85, i32* %8, align 4
  br label %23

86:                                               ; preds = %23
  br label %87

87:                                               ; preds = %86
  %88 = load i32, i32* %12, align 4
  %89 = add nsw i32 %88, 1
  store i32 %89, i32* %12, align 4
  br label %18

90:                                               ; preds = %18
  ret void
}

declare dso_local i32 @gets(...) #1

; Function Attrs: nounwind readonly
declare dso_local i64 @strlen(i8*) #2

declare dso_local i32 @printf(i8*, ...) #1


!llvm.module.flags = !{!0}
!llvm.ident = !{!1}

!0 = !{i32 1, !"wchar_size", i32 4}
!1 = !{!"clang version 10.0.0-4ubuntu1 "}
